; Function Attrs: nounwind uwtable
define i32 @swr_drop_output(ptr noundef %0, i32 noundef %1) local_unnamed_addr #1 {
  %3 = alloca [64 x ptr], align 16
  call void @llvm.lifetime.start.p0(i64 512, ptr nonnull %3) #12
  %4 = getelementptr inbounds nuw i8, ptr %0, i64 16176
  %5 = load i32, ptr %4, align 8, !tbaa !99
  %6 = add nsw i32 %5, %1
  store i32 %6, ptr %4, align 8, !tbaa !99
  %7 = icmp slt i32 %6, 1
  br i1 %7, label %11, label %8

8:                                                ; preds = %2
  tail call void (ptr, i32, ptr, ...) @av_log(ptr noundef nonnull %0, i32 noundef 40, ptr noundef nonnull @.str.33, i32 noundef %1) #12
  %9 = load i32, ptr %4, align 8, !tbaa !99
  %10 = call i32 @swr_convert(ptr noundef nonnull %0, ptr noundef null, i32 noundef %9, ptr noundef nonnull %3, i32 noundef 0)
  br label %11

11:                                               ; preds = %2, %8
  %.0 = phi i32 [ %10, %8 ], [ 0, %2 ]
  call void @llvm.lifetime.end.p0(i64 512, ptr nonnull %3) #12
  ret i32 %.0
}